target datalayout = "e-m:e-p270:32:32-p271:32:32-p272:64:64-i64:64-i128:128-f80:128-n8:16:32:64-S128"
target triple = "x86_64-pc-linux-gnu"

%class.G1RedirtyCardsLocalQueueSet = type { %class.PtrQueueSet, ptr, %struct.BufferNodeList, %"class.G1RedirtyCardsLocalQueueSet::Queue" }
%class.PtrQueueSet = type { ptr, ptr }
%struct.BufferNodeList = type { ptr, ptr, i64 }
%"class.G1RedirtyCardsLocalQueueSet::Queue" = type { %class.PtrQueue }
%class.PtrQueue = type { i64, ptr }

; Function Attrs: mustprogress nounwind uwtable
define hidden void @_ZN27G1RedirtyCardsLocalQueueSet7enqueueEPv(ptr noundef nonnull align 8 dereferenceable(64) %0, ptr noundef %1) #1 align 2 {
  %3 = alloca ptr, align 8
  %4 = alloca ptr, align 8
  %5 = alloca ptr, align 8
  store ptr %0, ptr %3, align 8
  store ptr %1, ptr %4, align 8
  %6 = load ptr, ptr %3, align 8
  %7 = getelementptr inbounds %class.G1RedirtyCardsLocalQueueSet, ptr %6, i32 0, i32 3
  %8 = load ptr, ptr %4, align 8
  %9 = call noundef zeroext i1 @_ZN11PtrQueueSet11try_enqueueER8PtrQueuePv(ptr noundef nonnull align 8 dereferenceable(16) %6, ptr noundef nonnull align 8 dereferenceable(16) %7, ptr noundef %8)
  br i1 %9, label %23, label %10

10:                                               ; preds = %2
  %11 = getelementptr inbounds %class.G1RedirtyCardsLocalQueueSet, ptr %6, i32 0, i32 3
  %12 = call noundef ptr @_ZN11PtrQueueSet24exchange_buffer_with_newER8PtrQueue(ptr noundef nonnull align 8 dereferenceable(16) %6, ptr noundef nonnull align 8 dereferenceable(16) %11)
  store ptr %12, ptr %5, align 8
  %13 = load ptr, ptr %5, align 8
  %14 = icmp ne ptr %13, null
  br i1 %14, label %15, label %20

15:                                               ; preds = %10
  %16 = load ptr, ptr %5, align 8
  %17 = load ptr, ptr %6, align 8
  %18 = getelementptr inbounds ptr, ptr %17, i64 0
  %19 = load ptr, ptr %18, align 8
  call void %19(ptr noundef nonnull align 8 dereferenceable(64) %6, ptr noundef %16)
  br label %20

20:                                               ; preds = %15, %10
  %21 = getelementptr inbounds %class.G1RedirtyCardsLocalQueueSet, ptr %6, i32 0, i32 3
  %22 = load ptr, ptr %4, align 8
  call void @_ZN11PtrQueueSet13retry_enqueueER8PtrQueuePv(ptr noundef nonnull align 8 dereferenceable(16) %6, ptr noundef nonnull align 8 dereferenceable(16) %21, ptr noundef %22)
  br label %23

23:                                               ; preds = %20, %2
  ret void
}