; Function Attrs: mustprogress nounwind uwtable
define hidden void @_ZN27G1RedirtyCardsLocalQueueSet7enqueueEPv(ptr noundef nonnull align 8 dereferenceable(64) %0, ptr noundef %1) local_unnamed_addr #0 align 2 {
  %3 = getelementptr inbounds i8, ptr %0, i64 48
  %4 = tail call noundef zeroext i1 @_ZN11PtrQueueSet11try_enqueueER8PtrQueuePv(ptr noundef nonnull align 8 dereferenceable(16) %0, ptr noundef nonnull align 8 dereferenceable(16) %3, ptr noundef %1) #6
  br i1 %4, label %11, label %5

5:                                                ; preds = %2
  %6 = tail call noundef ptr @_ZN11PtrQueueSet24exchange_buffer_with_newER8PtrQueue(ptr noundef nonnull align 8 dereferenceable(16) %0, ptr noundef nonnull align 8 dereferenceable(16) %3) #6
  %.not = icmp eq ptr %6, null
  br i1 %.not, label %10, label %7

7:                                                ; preds = %5
  %8 = load ptr, ptr %0, align 8
  %9 = load ptr, ptr %8, align 8
  tail call void %9(ptr noundef nonnull align 8 dereferenceable(64) %0, ptr noundef nonnull %6) #6
  br label %10

10:                                               ; preds = %7, %5
  tail call void @_ZN11PtrQueueSet13retry_enqueueER8PtrQueuePv(ptr noundef nonnull align 8 dereferenceable(16) %0, ptr noundef nonnull align 8 dereferenceable(16) %3, ptr noundef %1) #6
  br label %11

11:                                               ; preds = %10, %2
  ret void
}